target datalayout = "e-m:e-p270:32:32-p271:32:32-p272:64:64-i64:64-i128:128-f80:128-n8:16:32:64-S128"
target triple = "x86_64-pc-linux-gnu"

%class.XStatCounter = type { %class.XStatIterableValue, %class.XStatSampler }
%class.XStatIterableValue = type { %class.XStatValue, ptr }
%class.XStatValue = type { ptr, ptr, i32, i32 }
%class.XStatSampler = type { %class.XStatIterableValue.0, ptr }
%class.XStatIterableValue.0 = type { %class.XStatValue, ptr }
%class.XPageAllocator = type <{ %class.XLock, %class.XPageCache, %class.XVirtualMemoryManager, %class.XPhysicalMemoryManager, i64, i64, i64, i64, i64, i64, i64, i64, i64, %class.XList.4, i64, %class.XList.4, ptr, ptr, %class.XSafeDelete, i8, [7 x i8] }>
%class.XLock = type { %class.PlatformMutex }
%class.PlatformMutex = type { %union.pthread_mutex_t }
%union.pthread_mutex_t = type { %struct.__pthread_mutex_s }
%struct.__pthread_mutex_s = type { i32, i32, i32, i32, i32, i16, i16, %struct.__pthread_internal_list }
%struct.__pthread_internal_list = type { ptr, ptr }
%class.XPageCache = type { %class.XValue, %class.XList, %class.XList, i64 }
%class.XValue = type { i64 }
%class.XList = type { %class.XListNode, i64 }
%class.XListNode = type { ptr, ptr }
%class.XVirtualMemoryManager = type <{ %class.XMemoryManager, i64, i8, [7 x i8] }>
%class.XMemoryManager = type { %class.XLock, %class.XList.2, %"struct.XMemoryManager::Callbacks" }
%class.XList.2 = type { %class.XListNode.3, i64 }
%class.XListNode.3 = type { ptr, ptr }
%"struct.XMemoryManager::Callbacks" = type { ptr, ptr, ptr, ptr, ptr, ptr }
%class.XPhysicalMemoryManager = type { %class.XPhysicalMemoryBacking, %class.XMemoryManager }
%class.XPhysicalMemoryBacking = type <{ i32, [4 x i8], i64, i64, i64, i64, i8, [7 x i8] }>
%class.XList.4 = type { %class.XListNode.5, i64 }
%class.XListNode.5 = type { ptr, ptr }
%class.XSafeDelete = type { %class.XSafeDeleteImpl, %class.XLock }
%class.XSafeDeleteImpl = type { ptr, i64, %class.GrowableArrayCHeap }
%class.GrowableArrayCHeap = type { %class.GrowableArrayWithAllocator }
%class.GrowableArrayWithAllocator = type { %class.GrowableArrayView }
%class.GrowableArrayView = type { %class.GrowableArrayBase, ptr }
%class.GrowableArrayBase = type { i32, i32 }
%class.XAllocationFlags = type { i8 }
%class.XPageAllocation = type { i8, i64, %class.XAllocationFlags, i32, i64, i64, %class.XList, %class.XListNode.5, %class.XFuture }
%class.XFuture = type <{ %class.Semaphore, i32, [4 x i8] }>
%class.Semaphore = type { %class.PosixSemaphore }
%class.PosixSemaphore = type { %union.sem_t }
%union.sem_t = type { i64, [24 x i8] }
%class.XPage = type { i8, i8, i32, %class.XVirtualMemory, i64, %class.XLiveMap, i64, %class.XPhysicalMemory, %class.XListNode }
%class.XVirtualMemory = type { i64, i64 }
%class.XLiveMap = type { i32, i32, i64, i64, i64, %class.XBitMap, i64 }
%class.XBitMap = type { %class.CHeapBitMap.base, [7 x i8] }
%class.CHeapBitMap.base = type <{ %class.GrowableBitMap, i8 }>
%class.GrowableBitMap = type { %class.BitMap }
%class.BitMap = type { ptr, i64 }
%class.XPhysicalMemory = type { %class.GrowableArrayCHeap.8 }
%class.GrowableArrayCHeap.8 = type { %class.GrowableArrayWithAllocator.9 }
%class.GrowableArrayWithAllocator.9 = type { %class.GrowableArrayView.10 }
%class.GrowableArrayView.10 = type { %class.GrowableArrayBase, ptr }
%class.anon = type { i8 }

@_ZL18XCounterDefragment = internal global %class.XStatCounter zeroinitializer, align 8

; Function Attrs: mustprogress nounwind uwtable
define linkonce_odr hidden noundef i64 @_ZNK14XVirtualMemory5startEv(ptr noundef nonnull align 8 dereferenceable(16) %0) #1 comdat align 2 {
  %2 = alloca ptr, align 8
  store ptr %0, ptr %2, align 8
  %3 = load ptr, ptr %2, align 8
  %4 = getelementptr inbounds %class.XVirtualMemory, ptr %3, i32 0, i32 0
  %5 = load i64, ptr %4, align 8
  ret i64 %5
}

; Function Attrs: mustprogress nounwind uwtable
define linkonce_odr hidden noundef i64 @_ZZNK5XListI5XPageE13cast_to_outerEP9XListNodeIS0_EENKUlvE_clEv(ptr noundef nonnull align 1 dereferenceable(1) %0) #1 comdat align 2 {
  %2 = alloca ptr, align 8
  %3 = alloca [136 x i8], align 16
  %4 = alloca ptr, align 8
  %5 = alloca ptr, align 8
  store ptr %0, ptr %2, align 8
  %6 = getelementptr inbounds [136 x i8], ptr %3, i64 0, i64 0
  store ptr %6, ptr %4, align 8
  %7 = load ptr, ptr %4, align 8
  %8 = getelementptr inbounds %class.XPage, ptr %7, i32 0, i32 8
  store ptr %8, ptr %5, align 8
  %9 = load ptr, ptr %5, align 8
  %10 = getelementptr inbounds [136 x i8], ptr %3, i64 0, i64 0
  %11 = ptrtoint ptr %9 to i64
  %12 = ptrtoint ptr %10 to i64
  %13 = sub i64 %11, %12
  ret i64 %13
}

; Function Attrs: mustprogress nounwind uwtable
define linkonce_odr hidden void @_ZNK9XListNodeI5XPageE12verify_linksEv(ptr noundef nonnull align 8 dereferenceable(16) %0) #1 comdat align 2 {
  %2 = alloca ptr, align 8
  store ptr %0, ptr %2, align 8
  ret void
}

; Function Attrs: mustprogress nounwind uwtable
define linkonce_odr hidden noundef i64 @_ZNK21XVirtualMemoryManager24lowest_available_addressEv(ptr noundef nonnull align 8 dereferenceable(121) %0) #1 comdat align 2 {
  %2 = alloca ptr, align 8
  store ptr %0, ptr %2, align 8
  %3 = load ptr, ptr %2, align 8
  %4 = getelementptr inbounds %class.XVirtualMemoryManager, ptr %3, i32 0, i32 0
  %5 = call noundef i64 @_ZNK14XMemoryManager16peek_low_addressEv(ptr noundef nonnull align 8 dereferenceable(112) %4)
  ret i64 %5
}

; Function Attrs: mustprogress nounwind uwtable
define linkonce_odr hidden noundef i64 @_ZNK21XVirtualMemoryManager8reservedEv(ptr noundef nonnull align 8 dereferenceable(121) %0) #1 comdat align 2 {
  %2 = alloca ptr, align 8
  store ptr %0, ptr %2, align 8
  %3 = load ptr, ptr %2, align 8
  %4 = getelementptr inbounds %class.XVirtualMemoryManager, ptr %3, i32 0, i32 1
  %5 = load i64, ptr %4, align 8
  ret i64 %5
}

; Function Attrs: mustprogress nounwind uwtable
define linkonce_odr hidden noundef i64 @_ZNK5XPage5startEv(ptr noundef nonnull align 8 dereferenceable(136) %0) #1 comdat align 2 {
  %2 = alloca ptr, align 8
  store ptr %0, ptr %2, align 8
  %3 = load ptr, ptr %2, align 8
  %4 = getelementptr inbounds %class.XPage, ptr %3, i32 0, i32 3
  %5 = call noundef i64 @_ZNK14XVirtualMemory5startEv(ptr noundef nonnull align 8 dereferenceable(16) %4)
  ret i64 %5
}

; Function Attrs: mustprogress nounwind uwtable
define linkonce_odr hidden noundef i64 @_ZNK14XVirtualMemory4sizeEv(ptr noundef nonnull align 8 dereferenceable(16) %0) #1 comdat align 2 {
  %2 = alloca ptr, align 8
  store ptr %0, ptr %2, align 8
  %3 = load ptr, ptr %2, align 8
  %4 = getelementptr inbounds %class.XVirtualMemory, ptr %3, i32 0, i32 1
  %5 = load i64, ptr %4, align 8
  %6 = getelementptr inbounds %class.XVirtualMemory, ptr %3, i32 0, i32 0
  %7 = load i64, ptr %6, align 8
  %8 = sub i64 %5, %7
  ret i64 %8
}

; Function Attrs: mustprogress nounwind uwtable
define linkonce_odr hidden noundef ptr @_ZNK5XListI5XPageE13cast_to_outerEP9XListNodeIS0_E(ptr noundef nonnull align 8 dereferenceable(24) %0, ptr noundef %1) #1 comdat align 2 {
  %3 = alloca ptr, align 8
  %4 = alloca ptr, align 8
  %5 = alloca %class.anon, align 1
  store ptr %0, ptr %3, align 8
  store ptr %1, ptr %4, align 8
  %6 = load ptr, ptr %4, align 8
  %7 = ptrtoint ptr %6 to i64
  %8 = call noundef i64 @_ZZNK5XListI5XPageE13cast_to_outerEP9XListNodeIS0_EENKUlvE_clEv(ptr noundef nonnull align 1 dereferenceable(1) %5)
  %9 = sub i64 %7, %8
  %10 = inttoptr i64 %9 to ptr
  ret ptr %10
}

; Function Attrs: mustprogress nounwind uwtable
define linkonce_odr hidden noundef zeroext i1 @_ZNK5XListI5XPageE8is_emptyEv(ptr noundef nonnull align 8 dereferenceable(24) %0) #1 comdat align 2 {
  %2 = alloca ptr, align 8
  store ptr %0, ptr %2, align 8
  %3 = load ptr, ptr %2, align 8
  %4 = call noundef i64 @_ZNK5XListI5XPageE4sizeEv(ptr noundef nonnull align 8 dereferenceable(24) %3)
  %5 = icmp eq i64 %4, 0
  ret i1 %5
}

; Function Attrs: mustprogress nounwind uwtable
define linkonce_odr hidden void @_ZNK5XListI5XPageE11verify_headEv(ptr noundef nonnull align 8 dereferenceable(24) %0) #1 comdat align 2 {
  %2 = alloca ptr, align 8
  store ptr %0, ptr %2, align 8
  %3 = load ptr, ptr %2, align 8
  %4 = getelementptr inbounds %class.XList, ptr %3, i32 0, i32 0
  call void @_ZNK9XListNodeI5XPageE12verify_linksEv(ptr noundef nonnull align 8 dereferenceable(16) %4)
  ret void
}

; Function Attrs: mustprogress nounwind uwtable
define hidden noundef zeroext i1 @_ZNK14XPageAllocator17should_defragmentEPK5XPage(ptr noundef nonnull align 8 dereferenceable(609) %0, ptr noundef %1) #1 align 2 {
  %3 = alloca ptr, align 8
  %4 = alloca ptr, align 8
  store ptr %0, ptr %3, align 8
  store ptr %1, ptr %4, align 8
  %5 = load ptr, ptr %3, align 8
  %6 = load ptr, ptr %4, align 8
  %7 = call noundef zeroext i8 @_ZNK5XPage4typeEv(ptr noundef nonnull align 8 dereferenceable(136) %6)
  %8 = zext i8 %7 to i32
  %9 = icmp eq i32 %8, 0
  br i1 %9, label %10, label %23

10:                                               ; preds = %2
  %11 = load ptr, ptr %4, align 8
  %12 = call noundef i64 @_ZNK5XPage5startEv(ptr noundef nonnull align 8 dereferenceable(136) %11)
  %13 = getelementptr inbounds %class.XPageAllocator, ptr %5, i32 0, i32 2
  %14 = call noundef i64 @_ZNK21XVirtualMemoryManager8reservedEv(ptr noundef nonnull align 8 dereferenceable(121) %13)
  %15 = udiv i64 %14, 2
  %16 = icmp uge i64 %12, %15
  br i1 %16, label %17, label %23

17:                                               ; preds = %10
  %18 = load ptr, ptr %4, align 8
  %19 = call noundef i64 @_ZNK5XPage5startEv(ptr noundef nonnull align 8 dereferenceable(136) %18)
  %20 = getelementptr inbounds %class.XPageAllocator, ptr %5, i32 0, i32 2
  %21 = call noundef i64 @_ZNK21XVirtualMemoryManager24lowest_available_addressEv(ptr noundef nonnull align 8 dereferenceable(121) %20)
  %22 = icmp ugt i64 %19, %21
  br label %23

23:                                               ; preds = %17, %10, %2
  %24 = phi i1 [ false, %10 ], [ false, %2 ], [ %22, %17 ]
  ret i1 %24
}

; Function Attrs: mustprogress nounwind uwtable
define linkonce_odr hidden noundef i64 @_ZNK15XPageAllocation4sizeEv(ptr noundef nonnull align 8 dereferenceable(120) %0) #1 comdat align 2 {
  %2 = alloca ptr, align 8
  store ptr %0, ptr %2, align 8
  %3 = load ptr, ptr %2, align 8
  %4 = getelementptr inbounds %class.XPageAllocation, ptr %3, i32 0, i32 1
  %5 = load i64, ptr %4, align 8
  ret i64 %5
}

; Function Attrs: mustprogress nounwind uwtable
define linkonce_odr hidden noundef i64 @_ZNK5XPage4sizeEv(ptr noundef nonnull align 8 dereferenceable(136) %0) #1 comdat align 2 {
  %2 = alloca ptr, align 8
  store ptr %0, ptr %2, align 8
  %3 = load ptr, ptr %2, align 8
  %4 = getelementptr inbounds %class.XPage, ptr %3, i32 0, i32 3
  %5 = call noundef i64 @_ZNK14XVirtualMemory4sizeEv(ptr noundef nonnull align 8 dereferenceable(16) %4)
  ret i64 %5
}

; Function Attrs: mustprogress nounwind uwtable
define linkonce_odr hidden noundef zeroext i8 @_ZNK15XPageAllocation4typeEv(ptr noundef nonnull align 8 dereferenceable(120) %0) #1 comdat align 2 {
  %2 = alloca ptr, align 8
  store ptr %0, ptr %2, align 8
  %3 = load ptr, ptr %2, align 8
  %4 = getelementptr inbounds %class.XPageAllocation, ptr %3, i32 0, i32 0
  %5 = load i8, ptr %4, align 8
  ret i8 %5
}

; Function Attrs: mustprogress nounwind uwtable
define linkonce_odr hidden noundef zeroext i8 @_ZNK5XPage4typeEv(ptr noundef nonnull align 8 dereferenceable(136) %0) #1 comdat align 2 {
  %2 = alloca ptr, align 8
  store ptr %0, ptr %2, align 8
  %3 = load ptr, ptr %2, align 8
  %4 = getelementptr inbounds %class.XPage, ptr %3, i32 0, i32 0
  %5 = load i8, ptr %4, align 8
  ret i8 %5
}

; Function Attrs: mustprogress nounwind uwtable
define linkonce_odr hidden noundef ptr @_ZNK5XListI5XPageE5firstEv(ptr noundef nonnull align 8 dereferenceable(24) %0) #1 comdat align 2 {
  %2 = alloca ptr, align 8
  store ptr %0, ptr %2, align 8
  %3 = load ptr, ptr %2, align 8
  %4 = call noundef zeroext i1 @_ZNK5XListI5XPageE8is_emptyEv(ptr noundef nonnull align 8 dereferenceable(24) %3)
  br i1 %4, label %5, label %6

5:                                                ; preds = %1
  br label %11

6:                                                ; preds = %1
  %7 = getelementptr inbounds %class.XList, ptr %3, i32 0, i32 0
  %8 = getelementptr inbounds %class.XListNode, ptr %7, i32 0, i32 0
  %9 = load ptr, ptr %8, align 8
  %10 = call noundef ptr @_ZNK5XListI5XPageE13cast_to_outerEP9XListNodeIS0_E(ptr noundef nonnull align 8 dereferenceable(24) %3, ptr noundef %9)
  br label %11

11:                                               ; preds = %6, %5
  %12 = phi ptr [ null, %5 ], [ %10, %6 ]
  ret ptr %12
}

; Function Attrs: mustprogress nounwind uwtable
define linkonce_odr hidden noundef i64 @_ZNK5XListI5XPageE4sizeEv(ptr noundef nonnull align 8 dereferenceable(24) %0) #1 comdat align 2 {
  %2 = alloca ptr, align 8
  store ptr %0, ptr %2, align 8
  %3 = load ptr, ptr %2, align 8
  call void @_ZNK5XListI5XPageE11verify_headEv(ptr noundef nonnull align 8 dereferenceable(24) %3)
  %4 = getelementptr inbounds %class.XList, ptr %3, i32 0, i32 1
  %5 = load i64, ptr %4, align 8
  ret i64 %5
}

; Function Attrs: mustprogress nounwind uwtable
define linkonce_odr hidden noundef ptr @_ZN15XPageAllocation5pagesEv(ptr noundef nonnull align 8 dereferenceable(120) %0) #1 comdat align 2 {
  %2 = alloca ptr, align 8
  store ptr %0, ptr %2, align 8
  %3 = load ptr, ptr %2, align 8
  %4 = getelementptr inbounds %class.XPageAllocation, ptr %3, i32 0, i32 6
  ret ptr %4
}

; Function Attrs: mustprogress nounwind uwtable
define hidden noundef zeroext i1 @_ZNK14XPageAllocator18is_alloc_satisfiedEP15XPageAllocation(ptr noundef nonnull align 8 dereferenceable(609) %0, ptr noundef %1) #1 align 2 {
  %3 = alloca i1, align 1
  %4 = alloca ptr, align 8
  %5 = alloca ptr, align 8
  %6 = alloca ptr, align 8
  store ptr %0, ptr %4, align 8
  store ptr %1, ptr %5, align 8
  %7 = load ptr, ptr %4, align 8
  %8 = load ptr, ptr %5, align 8
  %9 = call noundef ptr @_ZN15XPageAllocation5pagesEv(ptr noundef nonnull align 8 dereferenceable(120) %8)
  %10 = call noundef i64 @_ZNK5XListI5XPageE4sizeEv(ptr noundef nonnull align 8 dereferenceable(24) %9)
  %11 = icmp ne i64 %10, 1
  br i1 %11, label %12, label %13

12:                                               ; preds = %2
  store i1 false, ptr %3, align 1
  br label %36

13:                                               ; preds = %2
  %14 = load ptr, ptr %5, align 8
  %15 = call noundef ptr @_ZN15XPageAllocation5pagesEv(ptr noundef nonnull align 8 dereferenceable(120) %14)
  %16 = call noundef ptr @_ZNK5XListI5XPageE5firstEv(ptr noundef nonnull align 8 dereferenceable(24) %15)
  store ptr %16, ptr %6, align 8
  %17 = load ptr, ptr %6, align 8
  %18 = call noundef zeroext i8 @_ZNK5XPage4typeEv(ptr noundef nonnull align 8 dereferenceable(136) %17)
  %19 = zext i8 %18 to i32
  %20 = load ptr, ptr %5, align 8
  %21 = call noundef zeroext i8 @_ZNK15XPageAllocation4typeEv(ptr noundef nonnull align 8 dereferenceable(120) %20)
  %22 = zext i8 %21 to i32
  %23 = icmp ne i32 %19, %22
  br i1 %23, label %30, label %24

24:                                               ; preds = %13
  %25 = load ptr, ptr %6, align 8
  %26 = call noundef i64 @_ZNK5XPage4sizeEv(ptr noundef nonnull align 8 dereferenceable(136) %25)
  %27 = load ptr, ptr %5, align 8
  %28 = call noundef i64 @_ZNK15XPageAllocation4sizeEv(ptr noundef nonnull align 8 dereferenceable(120) %27)
  %29 = icmp ne i64 %26, %28
  br i1 %29, label %30, label %31

30:                                               ; preds = %24, %13
  store i1 false, ptr %3, align 1
  br label %36

31:                                               ; preds = %24
  %32 = load ptr, ptr %6, align 8
  %33 = call noundef zeroext i1 @_ZNK14XPageAllocator17should_defragmentEPK5XPage(ptr noundef nonnull align 8 dereferenceable(609) %7, ptr noundef %32)
  br i1 %33, label %34, label %35

34:                                               ; preds = %31
  call void @_Z8XStatIncRK12XStatCounterm(ptr noundef nonnull align 8 dereferenceable(72) @_ZL18XCounterDefragment, i64 noundef 1)
  store i1 false, ptr %3, align 1
  br label %36

35:                                               ; preds = %31
  store i1 true, ptr %3, align 1
  br label %36

36:                                               ; preds = %35, %34, %30, %12
  %37 = load i1, ptr %3, align 1
  ret i1 %37
}